; Function Attrs: nounwind uwtable
define ptr @l_Lean_Elab_WF_packCalls___lambda__6___boxed(ptr noundef %0, ptr noundef %1, ptr noundef %2, ptr noundef %3, ptr noundef %4, ptr noundef %5, ptr noundef %6, ptr noundef %7, ptr noundef %8, ptr noundef %9, ptr noundef %10, ptr noundef %11) local_unnamed_addr #0 {
  %13 = tail call ptr @l_Lean_Expr_bindingDomain_x21(ptr noundef %0) #5
  tail call void @lean_inc_heartbeat() #5
  %14 = tail call noalias ptr @mi_malloc_small(i64 noundef 64) #5
  %15 = icmp eq ptr %14, null
  br i1 %15, label %16, label %l_Lean_Elab_WF_packCalls___lambda__6.exit

16:                                               ; preds = %12
  tail call void @lean_internal_panic_out_of_memory() #6
  unreachable

l_Lean_Elab_WF_packCalls___lambda__6.exit:        ; preds = %12
  %17 = getelementptr inbounds nuw i8, ptr %14, i64 4
  store i32 1, ptr %14, align 4, !tbaa !4
  store i32 -184549312, ptr %17, align 4
  %18 = getelementptr inbounds nuw i8, ptr %14, i64 8
  store ptr @l_Lean_Elab_WF_packCalls___lambda__5___boxed, ptr %18, align 8, !tbaa !10
  %19 = getelementptr inbounds nuw i8, ptr %14, i64 16
  store i16 11, ptr %19, align 8, !tbaa !15
  %20 = getelementptr inbounds nuw i8, ptr %14, i64 18
  store i16 5, ptr %20, align 2, !tbaa !15
  %21 = getelementptr inbounds nuw i8, ptr %14, i64 24
  store ptr %1, ptr %21, align 8, !tbaa !10
  %22 = getelementptr inbounds nuw i8, ptr %14, i64 32
  store ptr %2, ptr %22, align 8, !tbaa !10
  %23 = getelementptr inbounds nuw i8, ptr %14, i64 40
  store ptr %3, ptr %23, align 8, !tbaa !10
  %24 = getelementptr inbounds nuw i8, ptr %14, i64 48
  store ptr %13, ptr %24, align 8, !tbaa !10
  %25 = getelementptr inbounds nuw i8, ptr %14, i64 56
  store ptr %4, ptr %25, align 8, !tbaa !10
  %26 = load ptr, ptr @l_Lean_Elab_WF_packCalls___lambda__6___closed__1, align 8, !tbaa !10
  %27 = tail call ptr @l_Lean_Meta_transform___at_Lean_Meta_zetaReduce___spec__1(ptr noundef %5, ptr noundef %26, ptr noundef nonnull %14, i8 noundef zeroext 0, i8 noundef zeroext 1, ptr noundef %7, ptr noundef %8, ptr noundef %9, ptr noundef %10, ptr noundef %11) #5
  %28 = ptrtoint ptr %6 to i64
  %29 = and i64 %28, 1
  %.not = icmp eq i64 %29, 0
  br i1 %.not, label %30, label %lean_dec.exit15

30:                                               ; preds = %l_Lean_Elab_WF_packCalls___lambda__6.exit
  %31 = load i32, ptr %6, align 4, !tbaa !4
  %32 = icmp sgt i32 %31, 1
  br i1 %32, label %33, label %35, !prof !9

33:                                               ; preds = %30
  %34 = add nsw i32 %31, -1
  store i32 %34, ptr %6, align 4, !tbaa !4
  br label %lean_dec.exit15

35:                                               ; preds = %30
  %.not.i = icmp eq i32 %31, 0
  br i1 %.not.i, label %lean_dec.exit15, label %36

36:                                               ; preds = %35
  tail call void @lean_dec_ref_cold(ptr noundef nonnull %6) #5
  br label %lean_dec.exit15

lean_dec.exit15:                                  ; preds = %36, %35, %33, %l_Lean_Elab_WF_packCalls___lambda__6.exit
  %37 = ptrtoint ptr %0 to i64
  %38 = and i64 %37, 1
  %.not18 = icmp eq i64 %38, 0
  br i1 %.not18, label %39, label %lean_dec.exit

39:                                               ; preds = %lean_dec.exit15
  %40 = load i32, ptr %0, align 4, !tbaa !4
  %41 = icmp sgt i32 %40, 1
  br i1 %41, label %42, label %44, !prof !9

42:                                               ; preds = %39
  %43 = add nsw i32 %40, -1
  store i32 %43, ptr %0, align 4, !tbaa !4
  br label %lean_dec.exit

44:                                               ; preds = %39
  %.not.i16 = icmp eq i32 %40, 0
  br i1 %.not.i16, label %lean_dec.exit, label %45

45:                                               ; preds = %44
  tail call void @lean_dec_ref_cold(ptr noundef nonnull %0) #5
  br label %lean_dec.exit

lean_dec.exit:                                    ; preds = %45, %44, %42, %lean_dec.exit15
  ret ptr %27
}